; Function Attrs: nounwind uwtable
define internal fastcc range(i32 -400, 1) i32 @scan_number_of_base(ptr noundef nonnull captures(none) %0, ptr noundef %1, ptr noundef readonly captures(none) %2, ptr noundef nonnull writeonly captures(none) %3, i32 noundef %4) unnamed_addr #2 {
  switch i32 %4, label %scan_hexadecimal_number.exit [
    i32 16, label %6
    i32 8, label %41
  ]

6:                                                ; preds = %5
  %7 = load ptr, ptr %0, align 8, !tbaa !149
  %8 = icmp ult ptr %7, %1
  br i1 %8, label %.lr.ph.i, label %scan_hexadecimal_number.exit

.lr.ph.i:                                         ; preds = %6
  %9 = getelementptr inbounds nuw i8, ptr %2, i64 32
  %10 = getelementptr inbounds nuw i8, ptr %2, i64 88
  br label %11

11:                                               ; preds = %34, %.lr.ph.i
  %.03547.i = phi ptr [ %7, %.lr.ph.i ], [ %17, %34 ]
  %.03646.i = phi i32 [ 0, %.lr.ph.i ], [ %23, %34 ]
  %.03745.i = phi i32 [ 0, %.lr.ph.i ], [ %36, %34 ]
  %12 = load ptr, ptr %9, align 8, !tbaa !80
  %13 = tail call i32 %12(ptr noundef %.03547.i, ptr noundef nonnull %1) #24
  %14 = load ptr, ptr %2, align 8, !tbaa !82
  %15 = tail call i32 %14(ptr noundef %.03547.i) #24
  %16 = sext i32 %15 to i64
  %17 = getelementptr inbounds i8, ptr %.03547.i, i64 %16
  %18 = icmp ult i32 %13, 128
  br i1 %18, label %19, label %._crit_edge.i

19:                                               ; preds = %11
  %20 = load ptr, ptr %10, align 8, !tbaa !170
  %21 = tail call i32 %20(i32 noundef %13, i32 noundef 11) #24
  %.not.i = icmp eq i32 %21, 0
  br i1 %.not.i, label %._crit_edge.i, label %22

22:                                               ; preds = %19
  %23 = add nuw nsw i32 %.03646.i, 1
  %24 = load ptr, ptr %10, align 8, !tbaa !170
  %25 = tail call i32 %24(i32 noundef %13, i32 noundef 4) #24
  %.not40.i = icmp eq i32 %25, 0
  br i1 %.not40.i, label %26, label %29

26:                                               ; preds = %22
  %27 = load ptr, ptr %10, align 8, !tbaa !170
  %28 = tail call i32 %27(i32 noundef %13, i32 noundef 10) #24
  %.not41.i = icmp eq i32 %28, 0
  %..i = select i1 %.not41.i, i32 -87, i32 -55
  br label %29

29:                                               ; preds = %26, %22
  %.sink.i = phi i32 [ -48, %22 ], [ %..i, %26 ]
  %30 = add nsw i32 %.sink.i, %13
  %31 = xor i32 %30, -1
  %32 = lshr i32 %31, 4
  %33 = icmp ult i32 %32, %.03745.i
  br i1 %33, label %scan_hexadecimal_number.exit, label %34

34:                                               ; preds = %29
  %35 = shl nuw i32 %.03745.i, 4
  %36 = add i32 %30, %35
  %37 = icmp ult ptr %17, %1
  %38 = icmp samesign ult i32 %.03646.i, 7
  %39 = select i1 %37, i1 %38, i1 false
  br i1 %39, label %11, label %scan_hexadecimal_number.exit.sink.split, !llvm.loop !182

._crit_edge.i:                                    ; preds = %19, %11
  %40 = icmp eq i32 %.03646.i, 0
  br i1 %40, label %scan_hexadecimal_number.exit, label %scan_hexadecimal_number.exit.sink.split

41:                                               ; preds = %5
  %42 = load ptr, ptr %0, align 8, !tbaa !149
  %43 = icmp ult ptr %42, %1
  br i1 %43, label %.lr.ph.i15, label %scan_hexadecimal_number.exit

.lr.ph.i15:                                       ; preds = %41
  %44 = getelementptr inbounds nuw i8, ptr %2, i64 32
  %45 = getelementptr inbounds nuw i8, ptr %2, i64 88
  br label %46

46:                                               ; preds = %63, %.lr.ph.i15
  %.03040.i = phi ptr [ %42, %.lr.ph.i15 ], [ %52, %63 ]
  %.03139.i = phi i32 [ 0, %.lr.ph.i15 ], [ %64, %63 ]
  %.03238.i = phi i32 [ 0, %.lr.ph.i15 ], [ %67, %63 ]
  %47 = load ptr, ptr %44, align 8, !tbaa !80
  %48 = tail call i32 %47(ptr noundef %.03040.i, ptr noundef nonnull %1) #24
  %49 = load ptr, ptr %2, align 8, !tbaa !82
  %50 = tail call i32 %49(ptr noundef %.03040.i) #24
  %51 = sext i32 %50 to i64
  %52 = getelementptr inbounds i8, ptr %.03040.i, i64 %51
  %53 = icmp ult i32 %48, 128
  br i1 %53, label %54, label %._crit_edge.i13

54:                                               ; preds = %46
  %55 = load ptr, ptr %45, align 8, !tbaa !170
  %56 = tail call i32 %55(i32 noundef %48, i32 noundef 4) #24
  %57 = icmp ne i32 %56, 0
  %58 = icmp samesign ult i32 %48, 56
  %or.cond.i = select i1 %57, i1 %58, i1 false
  br i1 %or.cond.i, label %59, label %._crit_edge.i13

59:                                               ; preds = %54
  %60 = sub nsw i32 47, %48
  %61 = lshr i32 %60, 3
  %62 = icmp ult i32 %61, %.03238.i
  br i1 %62, label %scan_hexadecimal_number.exit, label %63

63:                                               ; preds = %59
  %64 = add nuw nsw i32 %.03139.i, 1
  %65 = shl nuw i32 %.03238.i, 3
  %66 = add i32 %65, -48
  %67 = add i32 %66, %48
  %68 = icmp ult ptr %52, %1
  %69 = icmp samesign ult i32 %.03139.i, 10
  %70 = select i1 %68, i1 %69, i1 false
  br i1 %70, label %46, label %scan_hexadecimal_number.exit.sink.split, !llvm.loop !181

._crit_edge.i13:                                  ; preds = %54, %46
  %71 = icmp eq i32 %.03139.i, 0
  br i1 %71, label %scan_hexadecimal_number.exit, label %scan_hexadecimal_number.exit.sink.split

scan_hexadecimal_number.exit.sink.split:          ; preds = %63, %34, %._crit_edge.i13, %._crit_edge.i
  %.032.lcssa.i32.sink = phi i32 [ %.03745.i, %._crit_edge.i ], [ %.03238.i, %._crit_edge.i13 ], [ %36, %34 ], [ %67, %63 ]
  %.030.lcssa.i33.sink = phi ptr [ %.03547.i, %._crit_edge.i ], [ %.03040.i, %._crit_edge.i13 ], [ %17, %34 ], [ %52, %63 ]
  store i32 %.032.lcssa.i32.sink, ptr %3, align 4, !tbaa !8
  store ptr %.030.lcssa.i33.sink, ptr %0, align 8, !tbaa !149
  br label %scan_hexadecimal_number.exit

scan_hexadecimal_number.exit:                     ; preds = %59, %29, %scan_hexadecimal_number.exit.sink.split, %41, %6, %._crit_edge.i13, %._crit_edge.i, %5
  %.0 = phi i32 [ -400, %5 ], [ -400, %._crit_edge.i ], [ -400, %._crit_edge.i13 ], [ -400, %6 ], [ -400, %41 ], [ 0, %scan_hexadecimal_number.exit.sink.split ], [ -200, %29 ], [ -200, %59 ]
  ret i32 %.0
}